target datalayout = "e-m:e-p270:32:32-p271:32:32-p272:64:64-i64:64-i128:128-f80:128-n8:16:32:64-S128"
target triple = "x86_64-pc-linux-gnu"

%struct._lv_global_t = type { i8, i8, %struct.lv_ll_t, ptr, ptr, %struct.lv_ll_t, i8, i32, i32, ptr, %struct.lv_ll_t, ptr, %struct.lv_ll_t, ptr, ptr, i32, ptr, i8, i32, i32, ptr, i32, %struct.lv_timer_state_t, %struct.lv_anim_state_t, %struct.lv_tick_state_t, %struct._lv_draw_buf_handlers_t, %struct._lv_draw_buf_handlers_t, %struct._lv_draw_buf_handlers_t, %struct.lv_ll_t, ptr, ptr, %struct.lv_draw_global_info_t, [4 x %struct.lv_draw_sw_mask_radius_circle_dsc_t], ptr, ptr, ptr, %struct.lv_tlsf_state_t, %struct.lv_ll_t, ptr, ptr, %struct.lv_style_t, i64, ptr, i32, ptr }
%struct.lv_timer_state_t = type { %struct.lv_ll_t, i8, i8, i8, i8, i32, i8, i32, i32, i32, i32, ptr, ptr }
%struct.lv_anim_state_t = type { i8, i8, ptr, %struct.lv_ll_t }
%struct.lv_tick_state_t = type { i32, i8, ptr, ptr }
%struct._lv_draw_buf_handlers_t = type { ptr, ptr, ptr, ptr, ptr, ptr }
%struct.lv_draw_global_info_t = type { ptr, i32, i32, i32, i32, i8 }
%struct.lv_draw_sw_mask_radius_circle_dsc_t = type { ptr, ptr, ptr, ptr, i32, i32, i32 }
%struct.lv_tlsf_state_t = type { ptr, i64, i64, %struct.lv_ll_t }
%struct.lv_ll_t = type { i32, ptr, ptr }
%struct.lv_style_t = type { ptr, i32, i8 }
%struct.lv_event_list_t = type { %struct._lv_array_t, i8 }
%struct._lv_array_t = type { ptr, i32, i32, i32, i8 }
%struct.lv_area_t = type { i32, i32, i32, i32 }
%struct.lv_point_t = type { i32, i32 }
%struct._lv_obj_t = type { ptr, ptr, ptr, ptr, ptr, %struct.lv_area_t, i32, i16, i16 }
%struct._lv_obj_spec_attr_t = type { ptr, ptr, %struct.lv_event_list_t, %struct.lv_point_t, i32, i32, i16, i16 }

@lv_global = external global %struct._lv_global_t, align 8

; Function Attrs: nounwind uwtable
define internal void @refr_obj_and_children(ptr noundef %0, ptr noundef %1) #0 {
  %3 = alloca ptr, align 8
  %4 = alloca ptr, align 8
  %5 = alloca ptr, align 8
  %6 = alloca ptr, align 8
  %7 = alloca i8, align 1
  %8 = alloca i32, align 4
  %9 = alloca i32, align 4
  %10 = alloca ptr, align 8
  store ptr %0, ptr %3, align 8, !tbaa !3
  store ptr %1, ptr %4, align 8, !tbaa !3
  %11 = load ptr, ptr %4, align 8, !tbaa !3
  %12 = icmp eq ptr %11, null
  br i1 %12, label %13, label %16

13:                                               ; preds = %2
  %14 = load ptr, ptr getelementptr inbounds nuw (%struct._lv_global_t, ptr @lv_global, i32 0, i32 3), align 8, !tbaa !21
  %15 = call ptr @lv_display_get_screen_active(ptr noundef %14)
  store ptr %15, ptr %4, align 8, !tbaa !3
  br label %16

16:                                               ; preds = %13, %2
  %17 = load ptr, ptr %4, align 8, !tbaa !3
  %18 = icmp eq ptr %17, null
  br i1 %18, label %19, label %20

19:                                               ; preds = %16
  br label %75

20:                                               ; preds = %16
  %21 = load ptr, ptr %3, align 8, !tbaa !3
  %22 = load ptr, ptr %4, align 8, !tbaa !3
  call void @refr_obj(ptr noundef %21, ptr noundef %22)
  call void @llvm.lifetime.start.p0(i64 8, ptr %5) #6
  call void @llvm.lifetime.start.p0(i64 8, ptr %6) #6
  %23 = load ptr, ptr %4, align 8, !tbaa !3
  store ptr %23, ptr %6, align 8, !tbaa !3
  %24 = load ptr, ptr %4, align 8, !tbaa !3
  %25 = call ptr @lv_obj_get_parent(ptr noundef %24)
  store ptr %25, ptr %5, align 8, !tbaa !3
  br label %26

26:                                               ; preds = %61, %20
  %27 = load ptr, ptr %5, align 8, !tbaa !3
  %28 = icmp ne ptr %27, null
  br i1 %28, label %29, label %74

29:                                               ; preds = %26
  call void @llvm.lifetime.start.p0(i64 1, ptr %7) #6
  store i8 0, ptr %7, align 1, !tbaa !45
  call void @llvm.lifetime.start.p0(i64 4, ptr %8) #6
  call void @llvm.lifetime.start.p0(i64 4, ptr %9) #6
  %30 = load ptr, ptr %5, align 8, !tbaa !3
  %31 = call i32 @lv_obj_get_child_count(ptr noundef %30)
  store i32 %31, ptr %9, align 4, !tbaa !41
  store i32 0, ptr %8, align 4, !tbaa !41
  br label %32

32:                                               ; preds = %58, %29
  %33 = load i32, ptr %8, align 4, !tbaa !41
  %34 = load i32, ptr %9, align 4, !tbaa !41
  %35 = icmp ult i32 %33, %34
  br i1 %35, label %36, label %61

36:                                               ; preds = %32
  call void @llvm.lifetime.start.p0(i64 8, ptr %10) #6
  %37 = load ptr, ptr %5, align 8, !tbaa !3
  %38 = getelementptr inbounds nuw %struct._lv_obj_t, ptr %37, i32 0, i32 2
  %39 = load ptr, ptr %38, align 8, !tbaa !48
  %40 = getelementptr inbounds nuw %struct._lv_obj_spec_attr_t, ptr %39, i32 0, i32 0
  %41 = load ptr, ptr %40, align 8, !tbaa !51
  %42 = load i32, ptr %8, align 4, !tbaa !41
  %43 = zext i32 %42 to i64
  %44 = getelementptr inbounds nuw ptr, ptr %41, i64 %43
  %45 = load ptr, ptr %44, align 8, !tbaa !3
  store ptr %45, ptr %10, align 8, !tbaa !3
  %46 = load i8, ptr %7, align 1, !tbaa !45, !range !46, !noundef !47
  %47 = trunc i8 %46 to i1
  br i1 %47, label %54, label %48

48:                                               ; preds = %36
  %49 = load ptr, ptr %10, align 8, !tbaa !3
  %50 = load ptr, ptr %6, align 8, !tbaa !3
  %51 = icmp eq ptr %49, %50
  br i1 %51, label %52, label %53

52:                                               ; preds = %48
  store i8 1, ptr %7, align 1, !tbaa !45
  br label %53

53:                                               ; preds = %52, %48
  br label %57

54:                                               ; preds = %36
  %55 = load ptr, ptr %3, align 8, !tbaa !3
  %56 = load ptr, ptr %10, align 8, !tbaa !3
  call void @refr_obj(ptr noundef %55, ptr noundef %56)
  br label %57

57:                                               ; preds = %54, %53
  call void @llvm.lifetime.end.p0(i64 8, ptr %10) #6
  br label %58

58:                                               ; preds = %57
  %59 = load i32, ptr %8, align 4, !tbaa !41
  %60 = add i32 %59, 1
  store i32 %60, ptr %8, align 4, !tbaa !41
  br label %32, !llvm.loop !125

61:                                               ; preds = %32
  %62 = load ptr, ptr %5, align 8, !tbaa !3
  %63 = load ptr, ptr %3, align 8, !tbaa !3
  %64 = call i32 @lv_obj_send_event(ptr noundef %62, i32 noundef 31, ptr noundef %63)
  %65 = load ptr, ptr %5, align 8, !tbaa !3
  %66 = load ptr, ptr %3, align 8, !tbaa !3
  %67 = call i32 @lv_obj_send_event(ptr noundef %65, i32 noundef 32, ptr noundef %66)
  %68 = load ptr, ptr %5, align 8, !tbaa !3
  %69 = load ptr, ptr %3, align 8, !tbaa !3
  %70 = call i32 @lv_obj_send_event(ptr noundef %68, i32 noundef 33, ptr noundef %69)
  %71 = load ptr, ptr %5, align 8, !tbaa !3
  store ptr %71, ptr %6, align 8, !tbaa !3
  %72 = load ptr, ptr %5, align 8, !tbaa !3
  %73 = call ptr @lv_obj_get_parent(ptr noundef %72)
  store ptr %73, ptr %5, align 8, !tbaa !3
  call void @llvm.lifetime.end.p0(i64 4, ptr %9) #6
  call void @llvm.lifetime.end.p0(i64 4, ptr %8) #6
  call void @llvm.lifetime.end.p0(i64 1, ptr %7) #6
  br label %26, !llvm.loop !126

74:                                               ; preds = %26
  call void @llvm.lifetime.end.p0(i64 8, ptr %6) #6
  call void @llvm.lifetime.end.p0(i64 8, ptr %5) #6
  br label %75

75:                                               ; preds = %74, %19
  ret void
}