; Function Attrs: nounwind uwtable
define internal fastcc void @refr_obj_and_children(ptr noundef %0, ptr noundef %1) unnamed_addr #1 {
  %3 = icmp eq ptr %1, null
  br i1 %3, label %4, label %.thread

4:                                                ; preds = %2
  %5 = load ptr, ptr getelementptr inbounds nuw (i8, ptr @lv_global, i64 32), align 8, !tbaa !20
  %6 = tail call ptr @lv_display_get_screen_active(ptr noundef %5) #9
  %7 = icmp eq ptr %6, null
  br i1 %7, label %.loopexit, label %.thread

.thread:                                          ; preds = %2, %4
  %.031 = phi ptr [ %6, %4 ], [ %1, %2 ]
  tail call fastcc void @refr_obj(ptr noundef %0, ptr noundef nonnull %.031)
  %8 = tail call ptr @lv_obj_get_parent(ptr noundef nonnull %.031) #9
  %.not34 = icmp eq ptr %8, null
  br i1 %.not34, label %.loopexit, label %.lr.ph37

.lr.ph37:                                         ; preds = %.thread, %._crit_edge
  %.02536 = phi ptr [ %23, %._crit_edge ], [ %8, %.thread ]
  %.02835 = phi ptr [ %.02536, %._crit_edge ], [ %.031, %.thread ]
  %9 = tail call i32 @lv_obj_get_child_count(ptr noundef nonnull %.02536) #9
  %.not38 = icmp eq i32 %9, 0
  br i1 %.not38, label %._crit_edge, label %.lr.ph

.lr.ph:                                           ; preds = %.lr.ph37
  %10 = getelementptr inbounds nuw i8, ptr %.02536, i64 16
  %wide.trip.count = zext i32 %9 to i64
  br label %11

11:                                               ; preds = %.lr.ph, %19
  %indvars.iv = phi i64 [ 0, %.lr.ph ], [ %indvars.iv.next, %19 ]
  %.02732 = phi i1 [ false, %.lr.ph ], [ %.1, %19 ]
  %12 = load ptr, ptr %10, align 8, !tbaa !65
  %13 = load ptr, ptr %12, align 8, !tbaa !68
  %14 = getelementptr inbounds nuw ptr, ptr %13, i64 %indvars.iv
  %15 = load ptr, ptr %14, align 8, !tbaa !71
  br i1 %.02732, label %18, label %16

16:                                               ; preds = %11
  %17 = icmp eq ptr %15, %.02835
  br label %19

18:                                               ; preds = %11
  tail call fastcc void @refr_obj(ptr noundef %0, ptr noundef %15)
  br label %19

19:                                               ; preds = %16, %18
  %.1 = phi i1 [ true, %18 ], [ %17, %16 ]
  %indvars.iv.next = add nuw nsw i64 %indvars.iv, 1
  %exitcond.not = icmp eq i64 %indvars.iv.next, %wide.trip.count
  br i1 %exitcond.not, label %._crit_edge, label %11, !llvm.loop !117

._crit_edge:                                      ; preds = %19, %.lr.ph37
  %20 = tail call i32 @lv_obj_send_event(ptr noundef nonnull %.02536, i32 noundef 31, ptr noundef %0) #9
  %21 = tail call i32 @lv_obj_send_event(ptr noundef nonnull %.02536, i32 noundef 32, ptr noundef %0) #9
  %22 = tail call i32 @lv_obj_send_event(ptr noundef nonnull %.02536, i32 noundef 33, ptr noundef %0) #9
  %23 = tail call ptr @lv_obj_get_parent(ptr noundef nonnull %.02536) #9
  %.not = icmp eq ptr %23, null
  br i1 %.not, label %.loopexit, label %.lr.ph37, !llvm.loop !118

.loopexit:                                        ; preds = %._crit_edge, %.thread, %4
  ret void
}